target datalayout = "e-m:e-p270:32:32-p271:32:32-p272:64:64-i64:64-i128:128-f80:128-n8:16:32:64-S128"
target triple = "x86_64-pc-linux-gnu"

%struct.OnigEncodingTypeST = type { ptr, ptr, i32, i32, ptr, ptr, ptr, ptr, ptr, ptr, ptr, ptr, ptr, ptr, ptr, ptr, ptr, ptr, ptr, i32, i32, i32 }

; Function Attrs: nounwind uwtable
define internal i64 @prs_long(ptr noundef %0, ptr noundef %1, ptr noundef %2, i32 noundef %3, i64 noundef %4, ptr noundef %5) #0 {
  %7 = alloca i64, align 8
  %8 = alloca ptr, align 8
  %9 = alloca ptr, align 8
  %10 = alloca ptr, align 8
  %11 = alloca i32, align 4
  %12 = alloca i64, align 8
  %13 = alloca ptr, align 8
  %14 = alloca i64, align 8
  %15 = alloca i64, align 8
  %16 = alloca i32, align 4
  %17 = alloca ptr, align 8
  %18 = alloca i32, align 4
  %19 = alloca i32, align 4
  store ptr %0, ptr %8, align 8, !tbaa !32
  store ptr %1, ptr %9, align 8, !tbaa !4
  store ptr %2, ptr %10, align 8, !tbaa !4
  store i32 %3, ptr %11, align 4, !tbaa !10
  store i64 %4, ptr %12, align 8, !tbaa !15
  store ptr %5, ptr %13, align 8, !tbaa !22
  call void @llvm.lifetime.start.p0(i64 8, ptr %14) #8
  call void @llvm.lifetime.start.p0(i64 8, ptr %15) #8
  call void @llvm.lifetime.start.p0(i64 4, ptr %16) #8
  call void @llvm.lifetime.start.p0(i64 8, ptr %17) #8
  call void @llvm.lifetime.start.p0(i64 4, ptr %18) #8
  %20 = load ptr, ptr %9, align 8, !tbaa !4
  %21 = load ptr, ptr %10, align 8, !tbaa !4
  %22 = icmp uge ptr %20, %21
  br i1 %22, label %23, label %24

23:                                               ; preds = %6
  store i64 -232, ptr %7, align 8
  store i32 1, ptr %19, align 4
  br label %89

24:                                               ; preds = %6
  store i32 1, ptr %16, align 4, !tbaa !10
  store i64 0, ptr %14, align 8, !tbaa !15
  %25 = load ptr, ptr %9, align 8, !tbaa !4
  store ptr %25, ptr %17, align 8, !tbaa !4
  br label %26

26:                                               ; preds = %82, %24
  %27 = load ptr, ptr %17, align 8, !tbaa !4
  %28 = load ptr, ptr %10, align 8, !tbaa !4
  %29 = icmp ult ptr %27, %28
  br i1 %29, label %30, label %83

30:                                               ; preds = %26
  %31 = load ptr, ptr %8, align 8, !tbaa !32
  %32 = getelementptr inbounds nuw %struct.OnigEncodingTypeST, ptr %31, i32 0, i32 5
  %33 = load ptr, ptr %32, align 8, !tbaa !92
  %34 = load ptr, ptr %17, align 8, !tbaa !4
  %35 = load ptr, ptr %10, align 8, !tbaa !4
  %36 = call i32 %33(ptr noundef %34, ptr noundef %35)
  store i32 %36, ptr %18, align 4, !tbaa !10
  %37 = load ptr, ptr %8, align 8, !tbaa !32
  %38 = getelementptr inbounds nuw %struct.OnigEncodingTypeST, ptr %37, i32 0, i32 0
  %39 = load ptr, ptr %38, align 8, !tbaa !94
  %40 = load ptr, ptr %17, align 8, !tbaa !4
  %41 = call i32 %39(ptr noundef %40)
  %42 = load ptr, ptr %17, align 8, !tbaa !4
  %43 = sext i32 %41 to i64
  %44 = getelementptr inbounds i8, ptr %42, i64 %43
  store ptr %44, ptr %17, align 8, !tbaa !4
  %45 = load i32, ptr %18, align 4, !tbaa !10
  %46 = icmp uge i32 %45, 48
  br i1 %46, label %47, label %66

47:                                               ; preds = %30
  %48 = load i32, ptr %18, align 4, !tbaa !10
  %49 = icmp ule i32 %48, 57
  br i1 %49, label %50, label %66

50:                                               ; preds = %47
  %51 = load i32, ptr %18, align 4, !tbaa !10
  %52 = sub i32 %51, 48
  %53 = zext i32 %52 to i64
  store i64 %53, ptr %15, align 8, !tbaa !15
  %54 = load i64, ptr %14, align 8, !tbaa !15
  %55 = load i64, ptr %12, align 8, !tbaa !15
  %56 = load i64, ptr %15, align 8, !tbaa !15
  %57 = sub nsw i64 %55, %56
  %58 = sdiv i64 %57, 10
  %59 = icmp sgt i64 %54, %58
  br i1 %59, label %60, label %61

60:                                               ; preds = %50
  store i64 -232, ptr %7, align 8
  store i32 1, ptr %19, align 4
  br label %89

61:                                               ; preds = %50
  %62 = load i64, ptr %14, align 8, !tbaa !15
  %63 = mul nsw i64 %62, 10
  %64 = load i64, ptr %15, align 8, !tbaa !15
  %65 = add nsw i64 %63, %64
  store i64 %65, ptr %14, align 8, !tbaa !15
  br label %82

66:                                               ; preds = %47, %30
  %67 = load i32, ptr %11, align 4, !tbaa !10
  %68 = icmp ne i32 %67, 0
  br i1 %68, label %69, label %80

69:                                               ; preds = %66
  %70 = load i32, ptr %18, align 4, !tbaa !10
  %71 = icmp eq i32 %70, 45
  br i1 %71, label %75, label %72

72:                                               ; preds = %69
  %73 = load i32, ptr %18, align 4, !tbaa !10
  %74 = icmp eq i32 %73, 43
  br i1 %74, label %75, label %80

75:                                               ; preds = %72, %69
  %76 = load i32, ptr %18, align 4, !tbaa !10
  %77 = icmp eq i32 %76, 45
  br i1 %77, label %78, label %79

78:                                               ; preds = %75
  store i32 -1, ptr %16, align 4, !tbaa !10
  br label %79

79:                                               ; preds = %78, %75
  br label %81

80:                                               ; preds = %72, %66
  store i64 -232, ptr %7, align 8
  store i32 1, ptr %19, align 4
  br label %89

81:                                               ; preds = %79
  br label %82

82:                                               ; preds = %81, %61
  store i32 0, ptr %11, align 4, !tbaa !10
  br label %26, !llvm.loop !287

83:                                               ; preds = %26
  %84 = load i32, ptr %16, align 4, !tbaa !10
  %85 = sext i32 %84 to i64
  %86 = load i64, ptr %14, align 8, !tbaa !15
  %87 = mul nsw i64 %85, %86
  %88 = load ptr, ptr %13, align 8, !tbaa !22
  store i64 %87, ptr %88, align 8, !tbaa !15
  store i64 0, ptr %7, align 8
  store i32 1, ptr %19, align 4
  br label %89

89:                                               ; preds = %83, %80, %60, %23
  call void @llvm.lifetime.end.p0(i64 4, ptr %18) #8
  call void @llvm.lifetime.end.p0(i64 8, ptr %17) #8
  call void @llvm.lifetime.end.p0(i64 4, ptr %16) #8
  call void @llvm.lifetime.end.p0(i64 8, ptr %15) #8
  call void @llvm.lifetime.end.p0(i64 8, ptr %14) #8
  %90 = load i64, ptr %7, align 8
  ret i64 %90
}