; Function Attrs: nounwind uwtable
define internal fastcc range(i64 -232, 1) i64 @prs_long(ptr noundef readonly captures(none) %0, ptr noundef nonnull %1, ptr noundef nonnull %2, ptr noundef nonnull writeonly captures(none) %3) unnamed_addr #2 {
  %.not = icmp ult ptr %1, %2
  br i1 %.not, label %.preheader, label %.loopexit

.preheader:                                       ; preds = %4
  %5 = getelementptr inbounds nuw i8, ptr %0, i64 32
  br label %6

6:                                                ; preds = %.preheader, %25
  %.02943 = phi ptr [ %1, %.preheader ], [ %12, %25 ]
  %.03042 = phi i32 [ 1, %.preheader ], [ %.1, %25 ]
  %.not3741 = phi i1 [ false, %.preheader ], [ true, %25 ]
  %.03240 = phi i64 [ 0, %.preheader ], [ %.133, %25 ]
  %7 = load ptr, ptr %5, align 8, !tbaa !80
  %8 = tail call i32 %7(ptr noundef %.02943, ptr noundef nonnull %2) #24
  %9 = load ptr, ptr %0, align 8, !tbaa !82
  %10 = tail call i32 %9(ptr noundef %.02943) #24
  %11 = sext i32 %10 to i64
  %12 = getelementptr inbounds i8, ptr %.02943, i64 %11
  %13 = add i32 %8, -48
  %or.cond = icmp ult i32 %13, 10
  br i1 %or.cond, label %14, label %22

14:                                               ; preds = %6
  %15 = zext nneg i32 %13 to i64
  %16 = xor i64 %15, 9223372036854775806
  %17 = udiv i64 %16, 10
  %18 = icmp sgt i64 %.03240, %17
  br i1 %18, label %.loopexit, label %19

19:                                               ; preds = %14
  %20 = mul nsw i64 %.03240, 10
  %21 = add nsw i64 %20, %15
  br label %25

22:                                               ; preds = %6
  br i1 %.not3741, label %.loopexit, label %23

23:                                               ; preds = %22
  switch i32 %8, label %.loopexit [
    i32 45, label %24
    i32 43, label %25
  ]

24:                                               ; preds = %23
  br label %25

25:                                               ; preds = %23, %24, %19
  %.133 = phi i64 [ %21, %19 ], [ %.03240, %24 ], [ %.03240, %23 ]
  %.1 = phi i32 [ %.03042, %19 ], [ -1, %24 ], [ %.03042, %23 ]
  %26 = icmp ult ptr %12, %2
  br i1 %26, label %6, label %27, !llvm.loop !282

27:                                               ; preds = %25
  %28 = sext i32 %.1 to i64
  %29 = mul nsw i64 %.133, %28
  store i64 %29, ptr %3, align 8, !tbaa !101
  br label %.loopexit

.loopexit:                                        ; preds = %22, %23, %14, %4, %27
  %.0 = phi i64 [ 0, %27 ], [ -232, %4 ], [ -232, %14 ], [ -232, %23 ], [ -232, %22 ]
  ret i64 %.0
}